target datalayout = "e-m:e-p270:32:32-p271:32:32-p272:64:64-i64:64-i128:128-f80:128-n8:16:32:64-S128"
target triple = "x86_64-pc-linux-gnu"

%struct.ParseContext_ = type { %struct.TokenData, i32, %union.SourceSpan, %union.SourceSpan, ptr, %struct.Lexer }
%struct.TokenData = type { ptr, i64, %union.anon.86 }
%union.anon.86 = type { %struct.anon.89 }
%struct.anon.89 = type { %struct.Int128_, i8 }
%struct.Int128_ = type { i64, i64 }
%union.SourceSpan = type { i64 }
%struct.Lexer = type { ptr, ptr, ptr, ptr, i32, i32, ptr, ptr, ptr, %struct.TokenData, %union.SourceSpan, i32, i32 }
%struct.Expr_ = type { ptr, %union.SourceSpan, i16, %union.anon.30 }
%union.anon.30 = type { %struct.ExprAnySwitch }
%struct.ExprAnySwitch = type { i8, %union.anon.32 }
%union.anon.32 = type { %struct.anon.33 }
%struct.anon.33 = type { ptr, %union.SourceSpan, ptr }
%struct.Int = type { %struct.Int128_, i32 }
%struct.ExprConst = type { i16, %union.anon.39 }
%union.anon.39 = type { %struct.Int }

@type_voidptr = external global ptr, align 8

; Function Attrs: nounwind uwtable
define internal ptr @parse_null(ptr noundef %0, ptr noundef %1) #0 {
  %3 = alloca ptr, align 8
  %4 = alloca ptr, align 8
  %5 = alloca ptr, align 8
  store ptr %0, ptr %3, align 8
  store ptr %1, ptr %4, align 8
  %6 = load ptr, ptr %3, align 8
  %7 = getelementptr inbounds %struct.ParseContext_, ptr %6, i32 0, i32 2
  %8 = getelementptr inbounds %union.SourceSpan, ptr %7, i32 0, i32 0
  %9 = load i64, ptr %8, align 8
  %10 = call ptr @expr_new(i32 noundef 14, i64 %9)
  store ptr %10, ptr %5, align 8
  %11 = load ptr, ptr %5, align 8
  %12 = getelementptr inbounds %struct.Expr_, ptr %11, i32 0, i32 3
  %13 = load i16, ptr %12, align 8
  %14 = and i16 %13, -256
  %15 = or i16 %14, 7
  store i16 %15, ptr %12, align 8
  %16 = load ptr, ptr %5, align 8
  %17 = getelementptr inbounds %struct.Expr_, ptr %16, i32 0, i32 3
  %18 = getelementptr inbounds %struct.ExprConst, ptr %17, i32 0, i32 1
  store i64 0, ptr %18, align 8
  %19 = load ptr, ptr @type_voidptr, align 8
  %20 = load ptr, ptr %5, align 8
  %21 = getelementptr inbounds %struct.Expr_, ptr %20, i32 0, i32 0
  store ptr %19, ptr %21, align 8
  %22 = load ptr, ptr %5, align 8
  %23 = getelementptr inbounds %struct.Expr_, ptr %22, i32 0, i32 2
  %24 = load i16, ptr %23, align 8
  %25 = and i16 %24, -3841
  %26 = or i16 %25, 512
  store i16 %26, ptr %23, align 8
  %27 = load ptr, ptr %3, align 8
  call void @advance(ptr noundef %27)
  %28 = load ptr, ptr %5, align 8
  ret ptr %28
}