; Function Attrs: nounwind uwtable
define internal noundef ptr @parse_null(ptr noundef %0, ptr nocapture readnone %1) #1 {
  %3 = getelementptr inbounds i8, ptr %0, i64 48
  %4 = load i64, ptr %3, align 8
  %5 = tail call ptr @expr_new(i32 noundef 14, i64 %4) #8
  %6 = getelementptr inbounds i8, ptr %5, i64 24
  %7 = load i16, ptr %6, align 8
  %8 = and i16 %7, -256
  %9 = or disjoint i16 %8, 7
  store i16 %9, ptr %6, align 8
  %10 = getelementptr inbounds i8, ptr %5, i64 32
  store i64 0, ptr %10, align 8
  %11 = load ptr, ptr @type_voidptr, align 8
  store ptr %11, ptr %5, align 8
  %12 = getelementptr inbounds i8, ptr %5, i64 16
  %13 = load i16, ptr %12, align 8
  %14 = and i16 %13, -3841
  %15 = or disjoint i16 %14, 512
  store i16 %15, ptr %12, align 8
  tail call void @advance(ptr noundef %0) #8
  ret ptr %5
}